; Function Attrs: nounwind uwtable
define void @lv_led_set_brightness(ptr noundef %0, i8 noundef zeroext %1) local_unnamed_addr #0 {
  %.not = icmp eq ptr %0, null
  br i1 %.not, label %.preheader, label %3

.preheader:                                       ; preds = %2, %.preheader
  br label %.preheader

3:                                                ; preds = %2
  %4 = getelementptr inbounds nuw i8, ptr %0, i64 67
  %5 = load i8, ptr %4, align 1, !tbaa !3
  %6 = icmp eq i8 %5, %1
  br i1 %6, label %9, label %7

7:                                                ; preds = %3
  %8 = tail call i8 @llvm.umax.i8(i8 %1, i8 80)
  store i8 %8, ptr %4, align 1, !tbaa !3
  tail call void @lv_obj_invalidate(ptr noundef nonnull %0) #5
  br label %9

9:                                                ; preds = %3, %7
  ret void
}